; Function Attrs: mustprogress uwtable
define hidden void @_Z17Hist_and_Backprojv() local_unnamed_addr #4 personality ptr @__gxx_personality_v0 {
  %1 = alloca %"class.cv::Mat", align 8
  %2 = alloca [2 x i32], align 4
  %3 = alloca [2 x float], align 8
  %4 = alloca [2 x float], align 8
  %5 = alloca [2 x ptr], align 16
  %6 = alloca [2 x i32], align 8
  %7 = alloca %"class.cv::_InputArray", align 8
  %8 = alloca %"class.cv::_OutputArray", align 8
  %9 = alloca %"class.cv::_InputArray", align 8
  %10 = alloca %"class.cv::_InputOutputArray", align 8
  %11 = alloca %"class.cv::_InputArray", align 8
  %12 = alloca %"class.cv::Mat", align 8
  %13 = alloca %"class.cv::Mat", align 8
  %14 = alloca %"class.cv::_InputArray", align 8
  %15 = alloca %"class.cv::_OutputArray", align 8
  %16 = alloca %"class.std::__cxx11::basic_string", align 8
  %17 = alloca %"class.std::allocator", align 1
  %18 = alloca %"class.cv::_InputArray", align 8
  call void @_ZN2cv3MatC1Ev(ptr noundef nonnull align 8 dereferenceable(96) %1) #8
  store i32 30, ptr %2, align 4
  %19 = getelementptr inbounds i8, ptr %2, i64 4
  store i32 32, ptr %19, align 4
  store i64 4842495499330125824, ptr %3, align 8
  store i64 4863887597560135680, ptr %4, align 8
  store ptr %3, ptr %5, align 16
  %20 = getelementptr inbounds i8, ptr %5, i64 8
  store ptr %4, ptr %20, align 8
  store i64 4294967296, ptr %6, align 8
  %21 = getelementptr inbounds i8, ptr %7, i64 16
  store i32 0, ptr %21, align 8
  %22 = getelementptr inbounds i8, ptr %7, i64 20
  store i32 0, ptr %22, align 4
  store i32 16842752, ptr %7, align 8
  %23 = getelementptr inbounds i8, ptr %7, i64 8
  store ptr @mask, ptr %23, align 8
  %24 = getelementptr inbounds i8, ptr %8, i64 8
  %25 = getelementptr inbounds i8, ptr %8, i64 16
  store i64 0, ptr %25, align 8
  store i32 33619968, ptr %8, align 8
  store ptr %1, ptr %24, align 8
  invoke void @_ZN2cv8calcHistEPKNS_3MatEiPKiRKNS_11_InputArrayERKNS_12_OutputArrayEiS4_PPKfbb(ptr noundef nonnull @hsv, i32 noundef 1, ptr noundef nonnull %6, ptr noundef nonnull align 8 dereferenceable(24) %7, ptr noundef nonnull align 8 dereferenceable(24) %8, i32 noundef 2, ptr noundef nonnull %2, ptr noundef nonnull %5, i1 noundef zeroext true, i1 noundef zeroext false)
          to label %26 unwind label %47

26:                                               ; preds = %0
  %27 = getelementptr inbounds i8, ptr %9, i64 16
  store i32 0, ptr %27, align 8
  %28 = getelementptr inbounds i8, ptr %9, i64 20
  store i32 0, ptr %28, align 4
  store i32 16842752, ptr %9, align 8
  %29 = getelementptr inbounds i8, ptr %9, i64 8
  store ptr %1, ptr %29, align 8
  %30 = getelementptr inbounds i8, ptr %10, i64 8
  %31 = getelementptr inbounds i8, ptr %10, i64 16
  store i64 0, ptr %31, align 8
  store i32 50397184, ptr %10, align 8
  store ptr %1, ptr %30, align 8
  call void @_ZN2cv3MatC1Ev(ptr noundef nonnull align 8 dereferenceable(96) %12) #8
  %32 = getelementptr inbounds i8, ptr %11, i64 16
  store i32 0, ptr %32, align 8
  %33 = getelementptr inbounds i8, ptr %11, i64 20
  store i32 0, ptr %33, align 4
  store i32 16842752, ptr %11, align 8
  %34 = getelementptr inbounds i8, ptr %11, i64 8
  store ptr %12, ptr %34, align 8
  invoke void @_ZN2cv9normalizeERKNS_11_InputArrayERKNS_17_InputOutputArrayEddiiS2_(ptr noundef nonnull align 8 dereferenceable(24) %9, ptr noundef nonnull align 8 dereferenceable(24) %10, double noundef 0.000000e+00, double noundef 2.550000e+02, i32 noundef 32, i32 noundef -1, ptr noundef nonnull align 8 dereferenceable(24) %11)
          to label %35 unwind label %49

35:                                               ; preds = %26
  call void @_ZN2cv3MatD1Ev(ptr noundef nonnull align 8 dereferenceable(96) %12) #8
  call void @_ZN2cv3MatC1Ev(ptr noundef nonnull align 8 dereferenceable(96) %13) #8
  %36 = getelementptr inbounds i8, ptr %14, i64 16
  store i32 0, ptr %36, align 8
  %37 = getelementptr inbounds i8, ptr %14, i64 20
  store i32 0, ptr %37, align 4
  store i32 16842752, ptr %14, align 8
  %38 = getelementptr inbounds i8, ptr %14, i64 8
  store ptr %1, ptr %38, align 8
  %39 = getelementptr inbounds i8, ptr %15, i64 8
  %40 = getelementptr inbounds i8, ptr %15, i64 16
  store i64 0, ptr %40, align 8
  store i32 33619968, ptr %15, align 8
  store ptr %13, ptr %39, align 8
  invoke void @_ZN2cv15calcBackProjectEPKNS_3MatEiPKiRKNS_11_InputArrayERKNS_12_OutputArrayEPPKfdb(ptr noundef nonnull @hsv, i32 noundef 1, ptr noundef nonnull %6, ptr noundef nonnull align 8 dereferenceable(24) %14, ptr noundef nonnull align 8 dereferenceable(24) %15, ptr noundef nonnull %5, double noundef 1.000000e+00, i1 noundef zeroext true)
          to label %41 unwind label %51

41:                                               ; preds = %35
  call void @_ZNSaIcEC1Ev(ptr noundef nonnull align 1 dereferenceable(1) %17) #8
  invoke void @_ZNSt7__cxx1112basic_stringIcSt11char_traitsIcESaIcEEC1EPKcRKS3_(ptr noundef nonnull align 8 dereferenceable(32) %16, ptr noundef nonnull @.str.7, ptr noundef nonnull align 1 dereferenceable(1) %17)
          to label %42 unwind label %53

42:                                               ; preds = %41
  %43 = getelementptr inbounds i8, ptr %18, i64 16
  store i32 0, ptr %43, align 8
  %44 = getelementptr inbounds i8, ptr %18, i64 20
  store i32 0, ptr %44, align 4
  store i32 16842752, ptr %18, align 8
  %45 = getelementptr inbounds i8, ptr %18, i64 8
  store ptr %13, ptr %45, align 8
  invoke void @_ZN2cv6imshowERKNSt7__cxx1112basic_stringIcSt11char_traitsIcESaIcEEERKNS_11_InputArrayE(ptr noundef nonnull align 8 dereferenceable(32) %16, ptr noundef nonnull align 8 dereferenceable(24) %18)
          to label %46 unwind label %55

46:                                               ; preds = %42
  call void @_ZNSt7__cxx1112basic_stringIcSt11char_traitsIcESaIcEED1Ev(ptr noundef nonnull align 8 dereferenceable(32) %16) #8
  call void @_ZNSaIcED1Ev(ptr noundef nonnull align 1 dereferenceable(1) %17) #8
  call void @_ZN2cv3MatD1Ev(ptr noundef nonnull align 8 dereferenceable(96) %13) #8
  call void @_ZN2cv3MatD1Ev(ptr noundef nonnull align 8 dereferenceable(96) %1) #8
  ret void

47:                                               ; preds = %0
  %48 = landingpad { ptr, i32 }
          cleanup
  br label %59

49:                                               ; preds = %26
  %50 = landingpad { ptr, i32 }
          cleanup
  call void @_ZN2cv3MatD1Ev(ptr noundef nonnull align 8 dereferenceable(96) %12) #8
  br label %59

51:                                               ; preds = %35
  %52 = landingpad { ptr, i32 }
          cleanup
  br label %58

53:                                               ; preds = %41
  %54 = landingpad { ptr, i32 }
          cleanup
  br label %57

55:                                               ; preds = %42
  %56 = landingpad { ptr, i32 }
          cleanup
  call void @_ZNSt7__cxx1112basic_stringIcSt11char_traitsIcESaIcEED1Ev(ptr noundef nonnull align 8 dereferenceable(32) %16) #8
  br label %57

57:                                               ; preds = %55, %53
  %.pn17.pn = phi { ptr, i32 } [ %56, %55 ], [ %54, %53 ]
  call void @_ZNSaIcED1Ev(ptr noundef nonnull align 1 dereferenceable(1) %17) #8
  br label %58

58:                                               ; preds = %51, %57
  %.pn17.pn.pn = phi { ptr, i32 } [ %.pn17.pn, %57 ], [ %52, %51 ]
  call void @_ZN2cv3MatD1Ev(ptr noundef nonnull align 8 dereferenceable(96) %13) #8
  br label %59

59:                                               ; preds = %49, %47, %58
  %.pn17.pn.pn.pn = phi { ptr, i32 } [ %.pn17.pn.pn, %58 ], [ %48, %47 ], [ %50, %49 ]
  call void @_ZN2cv3MatD1Ev(ptr noundef nonnull align 8 dereferenceable(96) %1) #8
  resume { ptr, i32 } %.pn17.pn.pn.pn
}